; Function Attrs: mustprogress uwtable
define hidden void @_ZN4cvc58internal6theory11quantifiers16InstStrategyEnum8presolveEv(ptr noundef nonnull align 8 dereferenceable(60) %0) unnamed_addr #3 align 2 {
  %2 = tail call noundef nonnull align 8 dereferenceable(408) ptr @_ZNK4cvc58internal6EnvObj7optionsEv(ptr noundef nonnull align 8 dereferenceable(16) %0)
  %3 = getelementptr inbounds nuw i8, ptr %2, i64 344
  %4 = load ptr, ptr %3, align 8, !tbaa !20
  %5 = getelementptr inbounds nuw i8, ptr %4, i64 136
  %6 = load i64, ptr %5, align 8, !tbaa !204
  %7 = trunc i64 %6 to i32
  %8 = getelementptr inbounds nuw i8, ptr %0, i64 56
  store i32 %7, ptr %8, align 8, !tbaa !19
  ret void
}